target datalayout = "e-m:e-p270:32:32-p271:32:32-p272:64:64-i64:64-i128:128-f80:128-n8:16:32:64-S128"
target triple = "x86_64-pc-linux-gnu"

%"class.glslang::TIntermediate" = type { i32, %"class.std::__cxx11::basic_string.1", %"class.std::__cxx11::basic_string.1", %"class.std::__cxx11::list", i32, i32, %"struct.glslang::SpvVersion", ptr, %"class.std::set", %"class.glslang::MustBeAssigned", i32, i32, i32, i8, i8, i8, i8, i8, i8, i8, i8, i8, i8, [3 x i32], [3 x i8], [3 x i32], i64, %"class.std::__cxx11::basic_string.1", %"class.std::__cxx11::basic_string.1", i32, i32, i32, ptr, ptr, i32, i8, i32, i32, i32, i32, i8, i8, i8, i32, i32, i32, i8, i8, i8, i8, i8, i8, i8, i32, i32, i8, i32, i8, %"class.std::vector", i8, i8, i8, i32, i32, i32, i32, i8, i32, %"struct.std::array", %"struct.std::array.12", %"class.std::vector.20", i8, i8, i8, i8, i8, i8, i8, %"class.std::set.25", i32, i8, i8, i8, i8, i8, i8, ptr, ptr, %"class.std::map.33", %"class.std::map.33", %"class.std::unordered_map", i32, i8, i8, %"class.glslang::TNumericFeatures", %"class.std::unordered_map.43", %"class.std::unordered_set", %"class.std::vector.75", [5 x %"class.std::vector.80"], [4 x %"class.std::vector.85"], %"class.std::set.25", %"class.std::__cxx11::basic_string.1", %"class.std::__cxx11::basic_string.1", %"class.std::map.90", %"class.glslang::TProcesses" }
%"class.std::__cxx11::list" = type { %"class.std::__cxx11::_List_base" }
%"class.std::__cxx11::_List_base" = type { %"struct.std::__cxx11::_List_base<glslang::TCall, std::allocator<glslang::TCall>>::_List_impl" }
%"struct.std::__cxx11::_List_base<glslang::TCall, std::allocator<glslang::TCall>>::_List_impl" = type { %"struct.std::__detail::_List_node_header" }
%"struct.std::__detail::_List_node_header" = type { %"struct.std::__detail::_List_node_base", i64 }
%"struct.std::__detail::_List_node_base" = type { ptr, ptr }
%"struct.glslang::SpvVersion" = type <{ i32, i32, i32, i32, i8, [3 x i8] }>
%"class.std::set" = type { %"class.std::_Rb_tree" }
%"class.std::_Rb_tree" = type { %"struct.std::_Rb_tree<std::__cxx11::basic_string<char>, std::__cxx11::basic_string<char>, std::_Identity<std::__cxx11::basic_string<char>>, std::less<std::__cxx11::basic_string<char>>>::_Rb_tree_impl" }
%"struct.std::_Rb_tree<std::__cxx11::basic_string<char>, std::__cxx11::basic_string<char>, std::_Identity<std::__cxx11::basic_string<char>>, std::less<std::__cxx11::basic_string<char>>>::_Rb_tree_impl" = type { %"struct.std::_Rb_tree_key_compare", %"struct.std::_Rb_tree_header" }
%"struct.std::_Rb_tree_key_compare" = type { %"struct.std::less" }
%"struct.std::less" = type { i8 }
%"struct.std::_Rb_tree_header" = type { %"struct.std::_Rb_tree_node_base", i64 }
%"struct.std::_Rb_tree_node_base" = type { i32, ptr, ptr, ptr }
%"class.glslang::MustBeAssigned" = type <{ %struct.TBuiltInResource, i8, [3 x i8] }>
%struct.TBuiltInResource = type { i32, i32, i32, i32, i32, i32, i32, i32, i32, i32, i32, i32, i32, i32, i32, i32, i32, i32, i32, i32, i32, i32, i32, i32, i32, i32, i32, i32, i32, i32, i32, i32, i32, i32, i32, i32, i32, i32, i32, i32, i32, i32, i32, i32, i32, i32, i32, i32, i32, i32, i32, i32, i32, i32, i32, i32, i32, i32, i32, i32, i32, i32, i32, i32, i32, i32, i32, i32, i32, i32, i32, i32, i32, i32, i32, i32, i32, i32, i32, i32, i32, i32, i32, i32, i32, i32, i32, i32, i32, i32, i32, i32, i32, i32, i32, i32, i32, i32, i32, i32, i32, i32, %struct.TLimits }
%struct.TLimits = type { i8, i8, i8, i8, i8, i8, i8, i8, i8 }
%"class.std::vector" = type { %"struct.std::_Vector_base" }
%"struct.std::_Vector_base" = type { %"struct.std::_Vector_base<glslang::TXfbBuffer, std::allocator<glslang::TXfbBuffer>>::_Vector_impl" }
%"struct.std::_Vector_base<glslang::TXfbBuffer, std::allocator<glslang::TXfbBuffer>>::_Vector_impl" = type { %"struct.std::_Vector_base<glslang::TXfbBuffer, std::allocator<glslang::TXfbBuffer>>::_Vector_impl_data" }
%"struct.std::_Vector_base<glslang::TXfbBuffer, std::allocator<glslang::TXfbBuffer>>::_Vector_impl_data" = type { ptr, ptr, ptr }
%"struct.std::array" = type { [6 x i32] }
%"struct.std::array.12" = type { [6 x %"class.std::map"] }
%"class.std::map" = type { %"class.std::_Rb_tree.13" }
%"class.std::_Rb_tree.13" = type { %"struct.std::_Rb_tree<int, std::pair<const int, int>, std::_Select1st<std::pair<const int, int>>, std::less<int>>::_Rb_tree_impl" }
%"struct.std::_Rb_tree<int, std::pair<const int, int>, std::_Select1st<std::pair<const int, int>>, std::less<int>>::_Rb_tree_impl" = type { %"struct.std::_Rb_tree_key_compare.17", %"struct.std::_Rb_tree_header" }
%"struct.std::_Rb_tree_key_compare.17" = type { %"struct.std::less.18" }
%"struct.std::less.18" = type { i8 }
%"class.std::vector.20" = type { %"struct.std::_Vector_base.21" }
%"struct.std::_Vector_base.21" = type { %"struct.std::_Vector_base<std::__cxx11::basic_string<char>, std::allocator<std::__cxx11::basic_string<char>>>::_Vector_impl" }
%"struct.std::_Vector_base<std::__cxx11::basic_string<char>, std::allocator<std::__cxx11::basic_string<char>>>::_Vector_impl" = type { %"struct.std::_Vector_base<std::__cxx11::basic_string<char>, std::allocator<std::__cxx11::basic_string<char>>>::_Vector_impl_data" }
%"struct.std::_Vector_base<std::__cxx11::basic_string<char>, std::allocator<std::__cxx11::basic_string<char>>>::_Vector_impl_data" = type { ptr, ptr, ptr }
%"class.std::map.33" = type { %"class.std::_Rb_tree.34" }
%"class.std::_Rb_tree.34" = type { %"struct.std::_Rb_tree<std::__cxx11::basic_string<char, std::char_traits<char>, glslang::pool_allocator<char>>, std::pair<const std::__cxx11::basic_string<char, std::char_traits<char>, glslang::pool_allocator<char>>, glslang::AstRefType>, std::_Select1st<std::pair<const std::__cxx11::basic_string<char, std::char_traits<char>, glslang::pool_allocator<char>>, glslang::AstRefType>>, std::less<std::__cxx11::basic_string<char, std::char_traits<char>, glslang::pool_allocator<char>>>>::_Rb_tree_impl" }
%"struct.std::_Rb_tree<std::__cxx11::basic_string<char, std::char_traits<char>, glslang::pool_allocator<char>>, std::pair<const std::__cxx11::basic_string<char, std::char_traits<char>, glslang::pool_allocator<char>>, glslang::AstRefType>, std::_Select1st<std::pair<const std::__cxx11::basic_string<char, std::char_traits<char>, glslang::pool_allocator<char>>, glslang::AstRefType>>, std::less<std::__cxx11::basic_string<char, std::char_traits<char>, glslang::pool_allocator<char>>>>::_Rb_tree_impl" = type { %"struct.std::_Rb_tree_key_compare.30", %"struct.std::_Rb_tree_header" }
%"struct.std::_Rb_tree_key_compare.30" = type { %"struct.std::less.31" }
%"struct.std::less.31" = type { i8 }
%"class.std::unordered_map" = type { %"class.std::_Hashtable" }
%"class.std::_Hashtable" = type { ptr, i64, %"struct.std::__detail::_Hash_node_base", i64, %"struct.std::__detail::_Prime_rehash_policy", ptr }
%"struct.std::__detail::_Hash_node_base" = type { ptr }
%"struct.std::__detail::_Prime_rehash_policy" = type { float, i64 }
%"class.glslang::TNumericFeatures" = type { i32 }
%"class.std::unordered_map.43" = type { %"class.std::_Hashtable.44" }
%"class.std::_Hashtable.44" = type { ptr, i64, %"struct.std::__detail::_Hash_node_base", i64, %"struct.std::__detail::_Prime_rehash_policy", ptr }
%"class.std::unordered_set" = type { %"class.std::_Hashtable.57" }
%"class.std::_Hashtable.57" = type { ptr, i64, %"struct.std::__detail::_Hash_node_base", i64, %"struct.std::__detail::_Prime_rehash_policy", ptr }
%"class.std::vector.75" = type { %"struct.std::_Vector_base.76" }
%"struct.std::_Vector_base.76" = type { %"struct.std::_Vector_base<glslang::TOffsetRange, std::allocator<glslang::TOffsetRange>>::_Vector_impl" }
%"struct.std::_Vector_base<glslang::TOffsetRange, std::allocator<glslang::TOffsetRange>>::_Vector_impl" = type { %"struct.std::_Vector_base<glslang::TOffsetRange, std::allocator<glslang::TOffsetRange>>::_Vector_impl_data" }
%"struct.std::_Vector_base<glslang::TOffsetRange, std::allocator<glslang::TOffsetRange>>::_Vector_impl_data" = type { ptr, ptr, ptr }
%"class.std::vector.80" = type { %"struct.std::_Vector_base.81" }
%"struct.std::_Vector_base.81" = type { %"struct.std::_Vector_base<glslang::TIoRange, std::allocator<glslang::TIoRange>>::_Vector_impl" }
%"struct.std::_Vector_base<glslang::TIoRange, std::allocator<glslang::TIoRange>>::_Vector_impl" = type { %"struct.std::_Vector_base<glslang::TIoRange, std::allocator<glslang::TIoRange>>::_Vector_impl_data" }
%"struct.std::_Vector_base<glslang::TIoRange, std::allocator<glslang::TIoRange>>::_Vector_impl_data" = type { ptr, ptr, ptr }
%"class.std::vector.85" = type { %"struct.std::_Vector_base.86" }
%"struct.std::_Vector_base.86" = type { %"struct.std::_Vector_base<glslang::TRange, std::allocator<glslang::TRange>>::_Vector_impl" }
%"struct.std::_Vector_base<glslang::TRange, std::allocator<glslang::TRange>>::_Vector_impl" = type { %"struct.std::_Vector_base<glslang::TRange, std::allocator<glslang::TRange>>::_Vector_impl_data" }
%"struct.std::_Vector_base<glslang::TRange, std::allocator<glslang::TRange>>::_Vector_impl_data" = type { ptr, ptr, ptr }
%"class.std::set.25" = type { %"class.std::_Rb_tree.26" }
%"class.std::_Rb_tree.26" = type { %"struct.std::_Rb_tree<std::__cxx11::basic_string<char, std::char_traits<char>, glslang::pool_allocator<char>>, std::__cxx11::basic_string<char, std::char_traits<char>, glslang::pool_allocator<char>>, std::_Identity<std::__cxx11::basic_string<char, std::char_traits<char>, glslang::pool_allocator<char>>>, std::less<std::__cxx11::basic_string<char, std::char_traits<char>, glslang::pool_allocator<char>>>>::_Rb_tree_impl" }
%"struct.std::_Rb_tree<std::__cxx11::basic_string<char, std::char_traits<char>, glslang::pool_allocator<char>>, std::__cxx11::basic_string<char, std::char_traits<char>, glslang::pool_allocator<char>>, std::_Identity<std::__cxx11::basic_string<char, std::char_traits<char>, glslang::pool_allocator<char>>>, std::less<std::__cxx11::basic_string<char, std::char_traits<char>, glslang::pool_allocator<char>>>>::_Rb_tree_impl" = type { %"struct.std::_Rb_tree_key_compare.30", %"struct.std::_Rb_tree_header" }
%"class.std::__cxx11::basic_string.1" = type { %"struct.std::__cxx11::basic_string<char>::_Alloc_hider", i64, %union.anon.2 }
%"struct.std::__cxx11::basic_string<char>::_Alloc_hider" = type { ptr }
%union.anon.2 = type { i64, [8 x i8] }
%"class.std::map.90" = type { %"class.std::_Rb_tree.91" }
%"class.std::_Rb_tree.91" = type { %"struct.std::_Rb_tree<std::__cxx11::basic_string<char>, std::pair<const std::__cxx11::basic_string<char>, std::__cxx11::basic_string<char>>, std::_Select1st<std::pair<const std::__cxx11::basic_string<char>, std::__cxx11::basic_string<char>>>, std::less<std::__cxx11::basic_string<char>>>::_Rb_tree_impl" }
%"struct.std::_Rb_tree<std::__cxx11::basic_string<char>, std::pair<const std::__cxx11::basic_string<char>, std::__cxx11::basic_string<char>>, std::_Select1st<std::pair<const std::__cxx11::basic_string<char>, std::__cxx11::basic_string<char>>>, std::less<std::__cxx11::basic_string<char>>>::_Rb_tree_impl" = type { %"struct.std::_Rb_tree_key_compare", %"struct.std::_Rb_tree_header" }
%"class.glslang::TProcesses" = type { %"class.std::vector.20" }

; Function Attrs: mustprogress nounwind uwtable
define linkonce_odr noundef i32 @_ZNK7glslang13TIntermediate9getSourceEv(ptr noundef nonnull align 8 dereferenceable(2024) %0) #0 comdat align 2 {
  %2 = alloca ptr, align 8
  store ptr %0, ptr %2, align 8
  %3 = load ptr, ptr %2, align 8
  %4 = getelementptr inbounds %"class.glslang::TIntermediate", ptr %3, i32 0, i32 34
  %5 = load i32, ptr %4, align 8
  ret i32 %5
}

; Function Attrs: mustprogress nounwind uwtable
define noundef ptr @_ZN7glslang13TIntermediate21addUniShapeConversionENS_9TOperatorERKNS_5TTypeEPNS_12TIntermTypedE(ptr noundef nonnull align 8 dereferenceable(2024) %0, i32 noundef %1, ptr noundef nonnull align 8 dereferenceable(152) %2, ptr noundef %3) #0 align 2 {
  %5 = alloca ptr, align 8
  %6 = alloca ptr, align 8
  %7 = alloca i32, align 4
  %8 = alloca ptr, align 8
  %9 = alloca ptr, align 8
  store ptr %0, ptr %6, align 8
  store i32 %1, ptr %7, align 4
  store ptr %2, ptr %8, align 8
  store ptr %3, ptr %9, align 8
  %10 = load ptr, ptr %6, align 8
  %11 = call noundef i32 @_ZNK7glslang13TIntermediate9getSourceEv(ptr noundef nonnull align 8 dereferenceable(2024) %10)
  switch i32 %11, label %14 [
    i32 2, label %12
    i32 1, label %13
  ]

12:                                               ; preds = %4
  br label %16

13:                                               ; preds = %4
  br label %14

14:                                               ; preds = %13, %4
  %15 = load ptr, ptr %9, align 8
  store ptr %15, ptr %5, align 8
  br label %37

16:                                               ; preds = %12
  %17 = load i32, ptr %7, align 4
  switch i32 %17, label %31 [
    i32 4, label %18
    i32 469, label %18
    i32 588, label %19
    i32 586, label %19
    i32 587, label %19
    i32 593, label %19
    i32 595, label %19
    i32 596, label %19
    i32 597, label %19
    i32 599, label %19
    i32 598, label %19
    i32 585, label %29
    i32 221, label %30
  ]

18:                                               ; preds = %16, %16
  br label %33

19:                                               ; preds = %16, %16, %16, %16, %16, %16, %16, %16, %16
  %20 = load ptr, ptr %9, align 8
  %21 = load ptr, ptr %20, align 8
  %22 = getelementptr inbounds ptr, ptr %21, i64 38
  %23 = load ptr, ptr %22, align 8
  %24 = call noundef i32 %23(ptr noundef nonnull align 8 dereferenceable(184) %20)
  %25 = icmp eq i32 %24, 1
  br i1 %25, label %26, label %28

26:                                               ; preds = %19
  %27 = load ptr, ptr %9, align 8
  store ptr %27, ptr %5, align 8
  br label %37

28:                                               ; preds = %19
  br label %33

29:                                               ; preds = %16
  br label %33

30:                                               ; preds = %16
  br label %33

31:                                               ; preds = %16
  %32 = load ptr, ptr %9, align 8
  store ptr %32, ptr %5, align 8
  br label %37

33:                                               ; preds = %30, %29, %28, %18
  %34 = load ptr, ptr %8, align 8
  %35 = load ptr, ptr %9, align 8
  %36 = call noundef ptr @_ZN7glslang13TIntermediate18addShapeConversionERKNS_5TTypeEPNS_12TIntermTypedE(ptr noundef nonnull align 8 dereferenceable(2024) %10, ptr noundef nonnull align 8 dereferenceable(152) %34, ptr noundef %35)
  store ptr %36, ptr %5, align 8
  br label %37

37:                                               ; preds = %33, %31, %26, %14
  %38 = load ptr, ptr %5, align 8
  ret ptr %38
}