; Function Attrs: mustprogress nounwind uwtable
define noundef ptr @_ZN7glslang13TIntermediate21addUniShapeConversionENS_9TOperatorERKNS_5TTypeEPNS_12TIntermTypedE(ptr noundef nonnull align 8 dereferenceable(2024) %0, i32 noundef %1, ptr noundef nonnull align 8 dereferenceable(152) %2, ptr noundef %3) local_unnamed_addr #0 align 2 {
  %5 = getelementptr inbounds i8, ptr %0, i64 768
  %6 = load i32, ptr %5, align 8
  %cond = icmp eq i32 %6, 2
  br i1 %cond, label %7, label %16

7:                                                ; preds = %4
  switch i32 %1, label %16 [
    i32 4, label %14
    i32 469, label %14
    i32 588, label %8
    i32 586, label %8
    i32 587, label %8
    i32 593, label %8
    i32 595, label %8
    i32 596, label %8
    i32 597, label %8
    i32 599, label %8
    i32 598, label %8
    i32 585, label %14
    i32 221, label %14
  ]

8:                                                ; preds = %7, %7, %7, %7, %7, %7, %7, %7, %7
  %9 = load ptr, ptr %3, align 8
  %10 = getelementptr inbounds i8, ptr %9, i64 304
  %11 = load ptr, ptr %10, align 8
  %12 = tail call noundef i32 %11(ptr noundef nonnull align 8 dereferenceable(184) %3) #17
  %13 = icmp eq i32 %12, 1
  br i1 %13, label %16, label %14

14:                                               ; preds = %7, %7, %8, %7, %7
  %15 = tail call noundef ptr @_ZN7glslang13TIntermediate18addShapeConversionERKNS_5TTypeEPNS_12TIntermTypedE(ptr noundef nonnull align 8 dereferenceable(2024) %0, ptr noundef nonnull align 8 dereferenceable(152) %2, ptr noundef %3)
  br label %16

16:                                               ; preds = %7, %8, %4, %14
  %.0 = phi ptr [ %15, %14 ], [ %3, %4 ], [ %3, %8 ], [ %3, %7 ]
  ret ptr %.0
}